; ModuleID = '31/193.c'
source_filename = "31/193.c"
target datalayout = "e-m:e-p270:32:32-p271:32:32-p272:64:64-i64:64-f80:128-n8:16:32:64-S128"
target triple = "x86_64-pc-linux-gnu"

%struct.student = type { [50 x i8], %struct.student* }

@.str = private unnamed_addr constant [4 x i8] c"end\00", align 1

; Function Attrs: noinline nounwind uwtable
define dso_local %struct.student* @creat() #0 {
  %1 = alloca %struct.student*, align 8
  %2 = alloca %struct.student*, align 8
  %3 = alloca %struct.student*, align 8
  store %struct.student* null, %struct.student** %1, align 8
  %4 = call noalias i8* @malloc(i64 100) #4
  %5 = bitcast i8* %4 to %struct.student*
  store %struct.student* %5, %struct.student** %3, align 8
  store %struct.student* %5, %struct.student** %2, align 8
  %6 = load %struct.student*, %struct.student** %2, align 8
  %7 = getelementptr inbounds %struct.student, %struct.student* %6, i32 0, i32 0
  %8 = getelementptr inbounds [50 x i8], [50 x i8]* %7, i64 0, i64 0
  %9 = call i32 (i8*, ...) bitcast (i32 (...)* @gets to i32 (i8*, ...)*)(i8* %8)
  br label %10

10:                                               ; preds = %25, %0
  %11 = load %struct.student*, %struct.student** %2, align 8
  %12 = getelementptr inbounds %struct.student, %struct.student* %11, i32 0, i32 0
  %13 = getelementptr inbounds [50 x i8], [50 x i8]* %12, i64 0, i64 0
  %14 = call i32 @strcmp(i8* %13, i8* getelementptr inbounds ([4 x i8], [4 x i8]* @.str, i64 0, i64 0)) #5
  %15 = icmp ne i32 %14, 0
  br i1 %15, label %16, label %33

16:                                               ; preds = %10
  %17 = load %struct.student*, %struct.student** %1, align 8
  %18 = icmp eq %struct.student* %17, null
  br i1 %18, label %19, label %21

19:                                               ; preds = %16
  %20 = load %struct.student*, %struct.student** %2, align 8
  store %struct.student* %20, %struct.student** %1, align 8
  br label %25

21:                                               ; preds = %16
  %22 = load %struct.student*, %struct.student** %2, align 8
  %23 = load %struct.student*, %struct.student** %3, align 8
  %24 = getelementptr inbounds %struct.student, %struct.student* %23, i32 0, i32 1
  store %struct.student* %22, %struct.student** %24, align 8
  br label %25

25:                                               ; preds = %21, %19
  %26 = load %struct.student*, %struct.student** %2, align 8
  store %struct.student* %26, %struct.student** %3, align 8
  %27 = call noalias i8* @malloc(i64 100) #4
  %28 = bitcast i8* %27 to %struct.student*
  store %struct.student* %28, %struct.student** %2, align 8
  %29 = load %struct.student*, %struct.student** %2, align 8
  %30 = getelementptr inbounds %struct.student, %struct.student* %29, i32 0, i32 0
  %31 = getelementptr inbounds [50 x i8], [50 x i8]* %30, i64 0, i64 0
  %32 = call i32 (i8*, ...) bitcast (i32 (...)* @gets to i32 (i8*, ...)*)(i8* %31)
  br label %10

33:                                               ; preds = %10
  %34 = load %struct.student*, %struct.student** %3, align 8
  %35 = getelementptr inbounds %struct.student, %struct.student* %34, i32 0, i32 1
  store %struct.student* null, %struct.student** %35, align 8
  %36 = load %struct.student*, %struct.student** %1, align 8
  ret %struct.student* %36
}

; Function Attrs: nounwind
declare dso_local noalias i8* @malloc(i64) #1

declare dso_local i32 @gets(...) #2

; Function Attrs: nounwind readonly
declare dso_local i32 @strcmp(i8*, i8*) #3

; Function Attrs: noinline nounwind uwtable
define dso_local %struct.student* @re(%struct.student* %0) #0 {
  %2 = alloca %struct.student*, align 8
  %3 = alloca %struct.student*, align 8
  %4 = alloca %struct.student*, align 8
  %5 = alloca %struct.student*, align 8
  %6 = alloca %struct.student*, align 8
  store %struct.student* %0, %struct.student** %2, align 8
  store %struct.student* null, %struct.student** %5, align 8
  br label %7

7:                                                ; preds = %33, %1
  %8 = load %struct.student*, %struct.student** %2, align 8
  store %struct.student* %8, %struct.student** %3, align 8
  store %struct.student* null, %struct.student** %4, align 8
  br label %9

9:                                                ; preds = %14, %7
  %10 = load %struct.student*, %struct.student** %3, align 8
  %11 = getelementptr inbounds %struct.student, %struct.student* %10, i32 0, i32 1
  %12 = load %struct.student*, %struct.student** %11, align 8
  %13 = icmp ne %struct.student* %12, null
  br i1 %13, label %14, label %19

14:                                               ; preds = %9
  %15 = load %struct.student*, %struct.student** %3, align 8
  store %struct.student* %15, %struct.student** %4, align 8
  %16 = load %struct.student*, %struct.student** %3, align 8
  %17 = getelementptr inbounds %struct.student, %struct.student* %16, i32 0, i32 1
  %18 = load %struct.student*, %struct.student** %17, align 8
  store %struct.student* %18, %struct.student** %3, align 8
  br label %9

19:                                               ; preds = %9
  %20 = load %struct.student*, %struct.student** %5, align 8
  %21 = icmp eq %struct.student* %20, null
  br i1 %21, label %22, label %27

22:                                               ; preds = %19
  %23 = load %struct.student*, %struct.student** %3, align 8
  store %struct.student* %23, %struct.student** %5, align 8
  %24 = load %struct.student*, %struct.student** %4, align 8
  %25 = load %struct.student*, %struct.student** %5, align 8
  %26 = getelementptr inbounds %struct.student, %struct.student* %25, i32 0, i32 1
  store %struct.student* %24, %struct.student** %26, align 8
  store %struct.student* %24, %struct.student** %6, align 8
  br label %27

27:                                               ; preds = %22, %19
  %28 = load %struct.student*, %struct.student** %4, align 8
  %29 = load %struct.student*, %struct.student** %6, align 8
  %30 = getelementptr inbounds %struct.student, %struct.student* %29, i32 0, i32 1
  store %struct.student* %28, %struct.student** %30, align 8
  store %struct.student* %28, %struct.student** %6, align 8
  %31 = load %struct.student*, %struct.student** %4, align 8
  %32 = getelementptr inbounds %struct.student, %struct.student* %31, i32 0, i32 1
  store %struct.student* null, %struct.student** %32, align 8
  br label %33

33:                                               ; preds = %27
  %34 = load %struct.student*, %struct.student** %2, align 8
  %35 = getelementptr inbounds %struct.student, %struct.student* %34, i32 0, i32 1
  %36 = load %struct.student*, %struct.student** %35, align 8
  %37 = icmp ne %struct.student* %36, null
  br i1 %37, label %7, label %38

38:                                               ; preds = %33
  %39 = load %struct.student*, %struct.student** %5, align 8
  ret %struct.student* %39
}

; Function Attrs: noinline nounwind uwtable
define dso_local void @print(%struct.student* %0) #0 {
  %2 = alloca %struct.student*, align 8
  %3 = alloca %struct.student*, align 8
  store %struct.student* %0, %struct.student** %2, align 8
  %4 = load %struct.student*, %struct.student** %2, align 8
  store %struct.student* %4, %struct.student** %3, align 8
  br label %5

5:                                                ; preds = %8, %1
  %6 = load %struct.student*, %struct.student** %3, align 8
  %7 = icmp ne %struct.student* %6, null
  br i1 %7, label %8, label %16

8:                                                ; preds = %5
  %9 = load %struct.student*, %struct.student** %3, align 8
  %10 = getelementptr inbounds %struct.student, %struct.student* %9, i32 0, i32 0
  %11 = getelementptr inbounds [50 x i8], [50 x i8]* %10, i64 0, i64 0
  %12 = call i32 @puts(i8* %11)
  %13 = load %struct.student*, %struct.student** %3, align 8
  %14 = getelementptr inbounds %struct.student, %struct.student* %13, i32 0, i32 1
  %15 = load %struct.student*, %struct.student** %14, align 8
  store %struct.student* %15, %struct.student** %3, align 8
  br label %5

16:                                               ; preds = %5
  ret void
}

declare dso_local i32 @puts(i8*) #2

; Function Attrs: noinline nounwind uwtable
define dso_local void @main() #0 {
  %1 = alloca %struct.student*, align 8
  %2 = call %struct.student* @creat()
  store %struct.student* %2, %struct.student** %1, align 8
  %3 = load %struct.student*, %struct.student** %1, align 8
  %4 = call %struct.student* @re(%struct.student* %3)
  store %struct.student* %4, %struct.student** %1, align 8
  %5 = load %struct.student*, %struct.student** %1, align 8
  call void @print(%struct.student* %5)
  ret void
}


!llvm.module.flags = !{!0}
!llvm.ident = !{!1}

!0 = !{i32 1, !"wchar_size", i32 4}
!1 = !{!"clang version 10.0.0-4ubuntu1 "}
